target datalayout = "e-m:e-p270:32:32-p271:32:32-p272:64:64-i64:64-i128:128-f80:128-n8:16:32:64-S128"
target triple = "x86_64-unknown-linux-gnu"

%"struct.msdfgen::Vector2" = type { double, double }
%"struct.msdfgen::BitmapConstRef.0" = type { ptr, i32, i32 }

; Function Attrs: mustprogress nounwind uwtable
define linkonce_odr dso_local noundef float @_ZN7msdfgen3mixIfdEET_S1_S1_T0_(float noundef %a, float noundef %b, double noundef %weight) #2 comdat {
entry:
  %a.addr = alloca float, align 4
  %b.addr = alloca float, align 4
  %weight.addr = alloca double, align 8
  store float %a, ptr %a.addr, align 4
  store float %b, ptr %b.addr, align 4
  store double %weight, ptr %weight.addr, align 8
  %0 = load double, ptr %weight.addr, align 8
  %sub = fsub double 1.000000e+00, %0
  %1 = load float, ptr %a.addr, align 4
  %conv = fpext float %1 to double
  %2 = load double, ptr %weight.addr, align 8
  %3 = load float, ptr %b.addr, align 4
  %conv1 = fpext float %3 to double
  %mul2 = fmul double %2, %conv1
  %4 = call double @llvm.fmuladd.f64(double %sub, double %conv, double %mul2)
  %conv3 = fptrunc double %4 to float
  ret float %conv3
}

; Function Attrs: mustprogress nounwind uwtable
define linkonce_odr dso_local noundef ptr @_ZNK7msdfgen14BitmapConstRefIfLi4EEclEii(ptr noundef nonnull align 8 dereferenceable(16) %this, i32 noundef %x, i32 noundef %y) #2 comdat align 2 {
entry:
  %this.addr = alloca ptr, align 8
  %x.addr = alloca i32, align 4
  %y.addr = alloca i32, align 4
  store ptr %this, ptr %this.addr, align 8
  store i32 %x, ptr %x.addr, align 4
  store i32 %y, ptr %y.addr, align 4
  %this1 = load ptr, ptr %this.addr, align 8
  %pixels = getelementptr inbounds %"struct.msdfgen::BitmapConstRef.0", ptr %this1, i32 0, i32 0
  %0 = load ptr, ptr %pixels, align 8
  %width = getelementptr inbounds %"struct.msdfgen::BitmapConstRef.0", ptr %this1, i32 0, i32 1
  %1 = load i32, ptr %width, align 8
  %2 = load i32, ptr %y.addr, align 4
  %mul = mul nsw i32 %1, %2
  %3 = load i32, ptr %x.addr, align 4
  %add = add nsw i32 %mul, %3
  %mul2 = mul nsw i32 4, %add
  %idx.ext = sext i32 %mul2 to i64
  %add.ptr = getelementptr inbounds float, ptr %0, i64 %idx.ext
  ret ptr %add.ptr
}

; Function Attrs: mustprogress nounwind uwtable
define linkonce_odr dso_local noundef i32 @_ZN7msdfgen5clampIiEET_S1_S1_(i32 noundef %n, i32 noundef %b) #2 comdat {
entry:
  %n.addr = alloca i32, align 4
  %b.addr = alloca i32, align 4
  store i32 %n, ptr %n.addr, align 4
  store i32 %b, ptr %b.addr, align 4
  %0 = load i32, ptr %n.addr, align 4
  %cmp = icmp sge i32 %0, 0
  br i1 %cmp, label %land.lhs.true, label %cond.false

land.lhs.true:                                    ; preds = %entry
  %1 = load i32, ptr %n.addr, align 4
  %2 = load i32, ptr %b.addr, align 4
  %cmp1 = icmp sle i32 %1, %2
  br i1 %cmp1, label %cond.true, label %cond.false

cond.true:                                        ; preds = %land.lhs.true
  %3 = load i32, ptr %n.addr, align 4
  br label %cond.end

cond.false:                                       ; preds = %land.lhs.true, %entry
  %4 = load i32, ptr %n.addr, align 4
  %cmp2 = icmp sgt i32 %4, 0
  %conv = zext i1 %cmp2 to i32
  %5 = load i32, ptr %b.addr, align 4
  %mul = mul nsw i32 %conv, %5
  br label %cond.end

cond.end:                                         ; preds = %cond.false, %cond.true
  %cond = phi i32 [ %3, %cond.true ], [ %mul, %cond.false ]
  ret i32 %cond
}

; Function Attrs: mustprogress nounwind uwtable
define linkonce_odr dso_local noundef nonnull align 8 dereferenceable(16) ptr @_ZN7msdfgen7Vector2mIES0_(ptr noundef nonnull align 8 dereferenceable(16) %this, double %other.coerce0, double %other.coerce1) #2 comdat align 2 {
entry:
  %other = alloca %"struct.msdfgen::Vector2", align 8
  %this.addr = alloca ptr, align 8
  %0 = getelementptr inbounds { double, double }, ptr %other, i32 0, i32 0
  store double %other.coerce0, ptr %0, align 8
  %1 = getelementptr inbounds { double, double }, ptr %other, i32 0, i32 1
  store double %other.coerce1, ptr %1, align 8
  store ptr %this, ptr %this.addr, align 8
  %this1 = load ptr, ptr %this.addr, align 8
  %x = getelementptr inbounds %"struct.msdfgen::Vector2", ptr %other, i32 0, i32 0
  %2 = load double, ptr %x, align 8
  %x2 = getelementptr inbounds %"struct.msdfgen::Vector2", ptr %this1, i32 0, i32 0
  %3 = load double, ptr %x2, align 8
  %sub = fsub double %3, %2
  store double %sub, ptr %x2, align 8
  %y = getelementptr inbounds %"struct.msdfgen::Vector2", ptr %other, i32 0, i32 1
  %4 = load double, ptr %y, align 8
  %y3 = getelementptr inbounds %"struct.msdfgen::Vector2", ptr %this1, i32 0, i32 1
  %5 = load double, ptr %y3, align 8
  %sub4 = fsub double %5, %4
  store double %sub4, ptr %y3, align 8
  ret ptr %this1
}

; Function Attrs: mustprogress nounwind uwtable
define linkonce_odr dso_local void @_ZN7msdfgen7Vector2C2Ed(ptr noundef nonnull align 8 dereferenceable(16) %this, double noundef %val) unnamed_addr #2 comdat align 2 {
entry:
  %this.addr = alloca ptr, align 8
  %val.addr = alloca double, align 8
  store ptr %this, ptr %this.addr, align 8
  store double %val, ptr %val.addr, align 8
  %this1 = load ptr, ptr %this.addr, align 8
  %x = getelementptr inbounds %"struct.msdfgen::Vector2", ptr %this1, i32 0, i32 0
  %0 = load double, ptr %val.addr, align 8
  store double %0, ptr %x, align 8
  %y = getelementptr inbounds %"struct.msdfgen::Vector2", ptr %this1, i32 0, i32 1
  %1 = load double, ptr %val.addr, align 8
  store double %1, ptr %y, align 8
  ret void
}

; Function Attrs: mustprogress uwtable
define internal void @_ZN7msdfgenL11interpolateIfLi4EEEvPT_RKNS_14BitmapConstRefIS1_XT0_EEENS_7Vector2E(ptr noundef %output, ptr noundef nonnull align 8 dereferenceable(16) %bitmap, double %pos.coerce0, double %pos.coerce1) #0 {
entry:
  %pos = alloca %"struct.msdfgen::Vector2", align 8
  %output.addr = alloca ptr, align 8
  %bitmap.addr = alloca ptr, align 8
  %agg.tmp = alloca %"struct.msdfgen::Vector2", align 8
  %l = alloca i32, align 4
  %b = alloca i32, align 4
  %r = alloca i32, align 4
  %t = alloca i32, align 4
  %lr = alloca double, align 8
  %bt = alloca double, align 8
  %i = alloca i32, align 4
  %0 = getelementptr inbounds { double, double }, ptr %pos, i32 0, i32 0
  store double %pos.coerce0, ptr %0, align 8
  %1 = getelementptr inbounds { double, double }, ptr %pos, i32 0, i32 1
  store double %pos.coerce1, ptr %1, align 8
  store ptr %output, ptr %output.addr, align 8
  store ptr %bitmap, ptr %bitmap.addr, align 8
  call void @_ZN7msdfgen7Vector2C2Ed(ptr noundef nonnull align 8 dereferenceable(16) %agg.tmp, double noundef 5.000000e-01)
  %2 = getelementptr inbounds { double, double }, ptr %agg.tmp, i32 0, i32 0
  %3 = load double, ptr %2, align 8
  %4 = getelementptr inbounds { double, double }, ptr %agg.tmp, i32 0, i32 1
  %5 = load double, ptr %4, align 8
  %call = call noundef nonnull align 8 dereferenceable(16) ptr @_ZN7msdfgen7Vector2mIES0_(ptr noundef nonnull align 8 dereferenceable(16) %pos, double %3, double %5)
  %x = getelementptr inbounds %"struct.msdfgen::Vector2", ptr %pos, i32 0, i32 0
  %6 = load double, ptr %x, align 8
  %7 = call double @llvm.floor.f64(double %6)
  %conv = fptosi double %7 to i32
  store i32 %conv, ptr %l, align 4
  %y = getelementptr inbounds %"struct.msdfgen::Vector2", ptr %pos, i32 0, i32 1
  %8 = load double, ptr %y, align 8
  %9 = call double @llvm.floor.f64(double %8)
  %conv1 = fptosi double %9 to i32
  store i32 %conv1, ptr %b, align 4
  %10 = load i32, ptr %l, align 4
  %add = add nsw i32 %10, 1
  store i32 %add, ptr %r, align 4
  %11 = load i32, ptr %b, align 4
  %add2 = add nsw i32 %11, 1
  store i32 %add2, ptr %t, align 4
  %x3 = getelementptr inbounds %"struct.msdfgen::Vector2", ptr %pos, i32 0, i32 0
  %12 = load double, ptr %x3, align 8
  %13 = load i32, ptr %l, align 4
  %conv4 = sitofp i32 %13 to double
  %sub = fsub double %12, %conv4
  store double %sub, ptr %lr, align 8
  %y5 = getelementptr inbounds %"struct.msdfgen::Vector2", ptr %pos, i32 0, i32 1
  %14 = load double, ptr %y5, align 8
  %15 = load i32, ptr %b, align 4
  %conv6 = sitofp i32 %15 to double
  %sub7 = fsub double %14, %conv6
  store double %sub7, ptr %bt, align 8
  %16 = load i32, ptr %l, align 4
  %17 = load ptr, ptr %bitmap.addr, align 8
  %width = getelementptr inbounds %"struct.msdfgen::BitmapConstRef.0", ptr %17, i32 0, i32 1
  %18 = load i32, ptr %width, align 8
  %sub8 = sub nsw i32 %18, 1
  %call9 = call noundef i32 @_ZN7msdfgen5clampIiEET_S1_S1_(i32 noundef %16, i32 noundef %sub8)
  store i32 %call9, ptr %l, align 4
  %19 = load i32, ptr %r, align 4
  %20 = load ptr, ptr %bitmap.addr, align 8
  %width10 = getelementptr inbounds %"struct.msdfgen::BitmapConstRef.0", ptr %20, i32 0, i32 1
  %21 = load i32, ptr %width10, align 8
  %sub11 = sub nsw i32 %21, 1
  %call12 = call noundef i32 @_ZN7msdfgen5clampIiEET_S1_S1_(i32 noundef %19, i32 noundef %sub11)
  store i32 %call12, ptr %r, align 4
  %22 = load i32, ptr %b, align 4
  %23 = load ptr, ptr %bitmap.addr, align 8
  %height = getelementptr inbounds %"struct.msdfgen::BitmapConstRef.0", ptr %23, i32 0, i32 2
  %24 = load i32, ptr %height, align 4
  %sub13 = sub nsw i32 %24, 1
  %call14 = call noundef i32 @_ZN7msdfgen5clampIiEET_S1_S1_(i32 noundef %22, i32 noundef %sub13)
  store i32 %call14, ptr %b, align 4
  %25 = load i32, ptr %t, align 4
  %26 = load ptr, ptr %bitmap.addr, align 8
  %height15 = getelementptr inbounds %"struct.msdfgen::BitmapConstRef.0", ptr %26, i32 0, i32 2
  %27 = load i32, ptr %height15, align 4
  %sub16 = sub nsw i32 %27, 1
  %call17 = call noundef i32 @_ZN7msdfgen5clampIiEET_S1_S1_(i32 noundef %25, i32 noundef %sub16)
  store i32 %call17, ptr %t, align 4
  store i32 0, ptr %i, align 4
  br label %for.cond

for.cond:                                         ; preds = %for.inc, %entry
  %28 = load i32, ptr %i, align 4
  %cmp = icmp slt i32 %28, 4
  br i1 %cmp, label %for.body, label %for.end

for.body:                                         ; preds = %for.cond
  %29 = load ptr, ptr %bitmap.addr, align 8
  %30 = load i32, ptr %l, align 4
  %31 = load i32, ptr %b, align 4
  %call18 = call noundef ptr @_ZNK7msdfgen14BitmapConstRefIfLi4EEclEii(ptr noundef nonnull align 8 dereferenceable(16) %29, i32 noundef %30, i32 noundef %31)
  %32 = load i32, ptr %i, align 4
  %idxprom = sext i32 %32 to i64
  %arrayidx = getelementptr inbounds float, ptr %call18, i64 %idxprom
  %33 = load float, ptr %arrayidx, align 4
  %34 = load ptr, ptr %bitmap.addr, align 8
  %35 = load i32, ptr %r, align 4
  %36 = load i32, ptr %b, align 4
  %call19 = call noundef ptr @_ZNK7msdfgen14BitmapConstRefIfLi4EEclEii(ptr noundef nonnull align 8 dereferenceable(16) %34, i32 noundef %35, i32 noundef %36)
  %37 = load i32, ptr %i, align 4
  %idxprom20 = sext i32 %37 to i64
  %arrayidx21 = getelementptr inbounds float, ptr %call19, i64 %idxprom20
  %38 = load float, ptr %arrayidx21, align 4
  %39 = load double, ptr %lr, align 8
  %call22 = call noundef float @_ZN7msdfgen3mixIfdEET_S1_S1_T0_(float noundef %33, float noundef %38, double noundef %39)
  %40 = load ptr, ptr %bitmap.addr, align 8
  %41 = load i32, ptr %l, align 4
  %42 = load i32, ptr %t, align 4
  %call23 = call noundef ptr @_ZNK7msdfgen14BitmapConstRefIfLi4EEclEii(ptr noundef nonnull align 8 dereferenceable(16) %40, i32 noundef %41, i32 noundef %42)
  %43 = load i32, ptr %i, align 4
  %idxprom24 = sext i32 %43 to i64
  %arrayidx25 = getelementptr inbounds float, ptr %call23, i64 %idxprom24
  %44 = load float, ptr %arrayidx25, align 4
  %45 = load ptr, ptr %bitmap.addr, align 8
  %46 = load i32, ptr %r, align 4
  %47 = load i32, ptr %t, align 4
  %call26 = call noundef ptr @_ZNK7msdfgen14BitmapConstRefIfLi4EEclEii(ptr noundef nonnull align 8 dereferenceable(16) %45, i32 noundef %46, i32 noundef %47)
  %48 = load i32, ptr %i, align 4
  %idxprom27 = sext i32 %48 to i64
  %arrayidx28 = getelementptr inbounds float, ptr %call26, i64 %idxprom27
  %49 = load float, ptr %arrayidx28, align 4
  %50 = load double, ptr %lr, align 8
  %call29 = call noundef float @_ZN7msdfgen3mixIfdEET_S1_S1_T0_(float noundef %44, float noundef %49, double noundef %50)
  %51 = load double, ptr %bt, align 8
  %call30 = call noundef float @_ZN7msdfgen3mixIfdEET_S1_S1_T0_(float noundef %call22, float noundef %call29, double noundef %51)
  %52 = load ptr, ptr %output.addr, align 8
  %53 = load i32, ptr %i, align 4
  %idxprom31 = sext i32 %53 to i64
  %arrayidx32 = getelementptr inbounds float, ptr %52, i64 %idxprom31
  store float %call30, ptr %arrayidx32, align 4
  br label %for.inc

for.inc:                                          ; preds = %for.body
  %54 = load i32, ptr %i, align 4
  %inc = add nsw i32 %54, 1
  store i32 %inc, ptr %i, align 4
  br label %for.cond, !llvm.loop !41

for.end:                                          ; preds = %for.cond
  ret void
}