; Function Attrs: mustprogress nofree norecurse nosync nounwind memory(read, argmem: readwrite, inaccessiblemem: none) uwtable
define internal fastcc void @_ZN7msdfgenL11interpolateIfLi4EEEvPT_RKNS_14BitmapConstRefIS1_XT0_EEENS_7Vector2E(ptr noundef nonnull writeonly captures(none) %output, ptr noundef nonnull readonly align 8 captures(none) dereferenceable(16) %bitmap, double %pos.coerce0, double %pos.coerce1) unnamed_addr #15 {
entry:
  %sub.i = fadd double %pos.coerce0, -5.000000e-01
  %sub4.i = fadd double %pos.coerce1, -5.000000e-01
  %0 = tail call double @llvm.floor.f64(double %sub.i)
  %conv = fptosi double %0 to i32
  %1 = tail call double @llvm.floor.f64(double %sub4.i)
  %conv1 = fptosi double %1 to i32
  %add = add nsw i32 %conv, 1
  %add2 = add nsw i32 %conv1, 1
  %conv4 = sitofp i32 %conv to double
  %sub = fsub double %sub.i, %conv4
  %conv6 = sitofp i32 %conv1 to double
  %sub7 = fsub double %sub4.i, %conv6
  %width = getelementptr inbounds nuw i8, ptr %bitmap, i64 8
  %2 = load i32, ptr %width, align 8
  %sub8 = add nsw i32 %2, -1
  %cmp.i = icmp slt i32 %conv, 0
  %cmp1.not.i = icmp sle i32 %2, %conv
  %or.cond.i = or i1 %cmp.i, %cmp1.not.i
  %cmp2.i = icmp sgt i32 %conv, 0
  %mul.i = select i1 %cmp2.i, i32 %sub8, i32 0
  %cond.i = select i1 %or.cond.i, i32 %mul.i, i32 %conv
  %cmp.i27 = icmp slt i32 %conv, -1
  %cmp1.not.i28 = icmp sle i32 %sub8, %conv
  %or.cond.i29 = or i1 %cmp.i27, %cmp1.not.i28
  %mul.i31 = select i1 %cmp.i, i32 0, i32 %sub8
  %cond.i32 = select i1 %or.cond.i29, i32 %mul.i31, i32 %add
  %height = getelementptr inbounds nuw i8, ptr %bitmap, i64 12
  %3 = load i32, ptr %height, align 4
  %sub13 = add nsw i32 %3, -1
  %cmp.i33 = icmp slt i32 %conv1, 0
  %cmp1.not.i34 = icmp sle i32 %3, %conv1
  %or.cond.i35 = or i1 %cmp.i33, %cmp1.not.i34
  %cmp2.i36 = icmp sgt i32 %conv1, 0
  %mul.i37 = select i1 %cmp2.i36, i32 %sub13, i32 0
  %cond.i38 = select i1 %or.cond.i35, i32 %mul.i37, i32 %conv1
  %cmp.i39 = icmp slt i32 %conv1, -1
  %cmp1.not.i40 = icmp sle i32 %sub13, %conv1
  %or.cond.i41 = or i1 %cmp.i39, %cmp1.not.i40
  %mul.i43 = select i1 %cmp.i33, i32 0, i32 %sub13
  %cond.i44 = select i1 %or.cond.i41, i32 %mul.i43, i32 %add2
  %sub.i52 = fsub double 1.000000e+00, %sub
  %sub.i71 = fsub double 1.000000e+00, %sub7
  br label %for.body

for.body:                                         ; preds = %entry, %for.body
  %indvars.iv = phi i64 [ 0, %entry ], [ %indvars.iv.next, %for.body ]
  %4 = load ptr, ptr %bitmap, align 8
  %5 = load i32, ptr %width, align 8
  %mul.i45 = mul nsw i32 %5, %cond.i38
  %add.i = add nsw i32 %mul.i45, %cond.i
  %mul2.i = shl nsw i32 %add.i, 2
  %idx.ext.i = sext i32 %mul2.i to i64
  %add.ptr.i = getelementptr inbounds float, ptr %4, i64 %idx.ext.i
  %arrayidx = getelementptr inbounds nuw float, ptr %add.ptr.i, i64 %indvars.iv
  %6 = load float, ptr %arrayidx, align 4
  %add.i48 = add nsw i32 %mul.i45, %cond.i32
  %mul2.i49 = shl nsw i32 %add.i48, 2
  %idx.ext.i50 = sext i32 %mul2.i49 to i64
  %add.ptr.i51 = getelementptr inbounds float, ptr %4, i64 %idx.ext.i50
  %arrayidx21 = getelementptr inbounds nuw float, ptr %add.ptr.i51, i64 %indvars.iv
  %7 = load float, ptr %arrayidx21, align 4
  %conv.i = fpext float %6 to double
  %conv1.i = fpext float %7 to double
  %mul2.i53 = fmul double %sub, %conv1.i
  %8 = tail call double @llvm.fmuladd.f64(double %sub.i52, double %conv.i, double %mul2.i53)
  %conv3.i = fptrunc double %8 to float
  %mul.i55 = mul nsw i32 %5, %cond.i44
  %add.i56 = add nsw i32 %mul.i55, %cond.i
  %mul2.i57 = shl nsw i32 %add.i56, 2
  %idx.ext.i58 = sext i32 %mul2.i57 to i64
  %add.ptr.i59 = getelementptr inbounds float, ptr %4, i64 %idx.ext.i58
  %arrayidx25 = getelementptr inbounds nuw float, ptr %add.ptr.i59, i64 %indvars.iv
  %9 = load float, ptr %arrayidx25, align 4
  %add.i62 = add nsw i32 %mul.i55, %cond.i32
  %mul2.i63 = shl nsw i32 %add.i62, 2
  %idx.ext.i64 = sext i32 %mul2.i63 to i64
  %add.ptr.i65 = getelementptr inbounds float, ptr %4, i64 %idx.ext.i64
  %arrayidx28 = getelementptr inbounds nuw float, ptr %add.ptr.i65, i64 %indvars.iv
  %10 = load float, ptr %arrayidx28, align 4
  %conv.i67 = fpext float %9 to double
  %conv1.i68 = fpext float %10 to double
  %mul2.i69 = fmul double %sub, %conv1.i68
  %11 = tail call double @llvm.fmuladd.f64(double %sub.i52, double %conv.i67, double %mul2.i69)
  %conv3.i70 = fptrunc double %11 to float
  %conv.i72 = fpext float %conv3.i to double
  %conv1.i73 = fpext float %conv3.i70 to double
  %mul2.i74 = fmul double %sub7, %conv1.i73
  %12 = tail call double @llvm.fmuladd.f64(double %sub.i71, double %conv.i72, double %mul2.i74)
  %conv3.i75 = fptrunc double %12 to float
  %arrayidx32 = getelementptr inbounds nuw float, ptr %output, i64 %indvars.iv
  store float %conv3.i75, ptr %arrayidx32, align 4
  %indvars.iv.next = add nuw nsw i64 %indvars.iv, 1
  %exitcond.not = icmp eq i64 %indvars.iv.next, 4
  br i1 %exitcond.not, label %for.end, label %for.body, !llvm.loop !138

for.end:                                          ; preds = %for.body
  ret void
}